target datalayout = "e-m:e-p270:32:32-p271:32:32-p272:64:64-i64:64-i128:128-f80:128-n8:16:32:64-S128"
target triple = "x86_64-pc-linux-gnu"

%struct.H5F_t = type { ptr, ptr, ptr, ptr, i32, ptr, i8, i8, ptr, i32 }
%struct.H5F_shared_t = type { ptr, ptr, ptr, i8, i32, i32, %struct.H5F_mtab_t, ptr, i8, i8, i64, i32, i32, i64, i64, ptr, ptr, %struct.H5AC_cache_config_t, %struct.H5AC_cache_image_config_t, i8, i8, ptr, i64, i32, i8, i64, i64, double, i64, i64, i64, i32, i32, i32, i8, i32, ptr, ptr, ptr, ptr, i8, i8, i8, i64, i64, ptr, ptr, i32, i64, i8, i32, i8, i64, i8, [13 x i32], [13 x i64], [13 x ptr], i8, i64, i64, [7 x i32], [7 x i32], %struct.H5F_blk_aggr_t, %struct.H5F_blk_aggr_t, i64, i64, %struct.H5F_meta_accum_t, i32, i32, [30 x ptr], %struct.H5F_object_flush_t, i8, ptr }
%struct.H5F_mtab_t = type { i32, i32, ptr }
%struct.H5AC_cache_config_t = type { i32, i8, i8, i8, [1025 x i8], i8, i8, i64, double, i64, i64, i64, i32, double, double, i8, i64, i32, double, double, i32, double, double, i8, i64, i32, i8, double, i64, i32 }
%struct.H5AC_cache_image_config_t = type { i32, i8, i8, i32 }
%struct.H5F_blk_aggr_t = type { i64, i64, i64, i64, i64 }
%struct.H5F_meta_accum_t = type { ptr, i64, i64, i64, i64, i64, i8 }
%struct.H5F_object_flush_t = type { ptr, ptr }
%struct.H5F_super_t = type { %struct.H5C_cache_entry_t, i32, i8, i8, i8, i32, [2 x i32], i64, i64, i64, i64, ptr }
%struct.H5C_cache_entry_t = type { ptr, i64, i64, ptr, i8, ptr, i8, i8, i8, i8, i32, i8, i8, i8, i8, i8, i32, ptr, i32, i32, i32, i32, i32, i8, i8, ptr, ptr, ptr, ptr, ptr, ptr, i8, i32, i8, i64, ptr, i64, i64, i32, i8, i32, i32, i8, ptr, ptr, ptr }

@.str.2 = private unnamed_addr constant [100 x i8] c"generated/home/dtcxzyw/WorkSpace/Projects/compilers/llvm-opt-benchmark/bench/hdf5/hdf5/src/H5Fint.c\00", align 1
@H5E_FILE_g = external global i64, align 8
@H5E_CANTMARKDIRTY_g = external global i64, align 8
@.str.110 = private unnamed_addr constant [35 x i8] c"unable to mark superblock as dirty\00", align 1
@H5E_CANTRELEASE_g = external global i64, align 8
@__func__.H5F__format_convert = private unnamed_addr constant [20 x i8] c"H5F__format_convert\00", align 1
@.str.175 = private unnamed_addr constant [52 x i8] c"error in removing message from superblock extension\00", align 1
@.str.176 = private unnamed_addr constant [34 x i8] c"unable to free free-space address\00", align 1

; Function Attrs: nounwind uwtable
define i32 @H5F__format_convert(ptr noundef %0) #0 {
  %2 = alloca ptr, align 8
  %3 = alloca i8, align 1
  %4 = alloca i32, align 4
  %5 = alloca i8, align 1
  store ptr %0, ptr %2, align 8
  store i8 0, ptr %3, align 1
  store i32 0, ptr %4, align 4
  store i8 0, ptr %5, align 1
  %6 = load ptr, ptr %2, align 8
  %7 = getelementptr inbounds %struct.H5F_t, ptr %6, i32 0, i32 2
  %8 = load ptr, ptr %7, align 8
  %9 = getelementptr inbounds %struct.H5F_shared_t, ptr %8, i32 0, i32 1
  %10 = load ptr, ptr %9, align 8
  %11 = getelementptr inbounds %struct.H5F_super_t, ptr %10, i32 0, i32 1
  %12 = load i32, ptr %11, align 8
  %13 = icmp ugt i32 %12, 2
  br i1 %13, label %14, label %21

14:                                               ; preds = %1
  %15 = load ptr, ptr %2, align 8
  %16 = getelementptr inbounds %struct.H5F_t, ptr %15, i32 0, i32 2
  %17 = load ptr, ptr %16, align 8
  %18 = getelementptr inbounds %struct.H5F_shared_t, ptr %17, i32 0, i32 1
  %19 = load ptr, ptr %18, align 8
  %20 = getelementptr inbounds %struct.H5F_super_t, ptr %19, i32 0, i32 1
  store i32 2, ptr %20, align 8
  store i8 1, ptr %3, align 1
  br label %21

21:                                               ; preds = %14, %1
  %22 = load ptr, ptr %2, align 8
  %23 = getelementptr inbounds %struct.H5F_t, ptr %22, i32 0, i32 2
  %24 = load ptr, ptr %23, align 8
  %25 = getelementptr inbounds %struct.H5F_shared_t, ptr %24, i32 0, i32 47
  %26 = load i32, ptr %25, align 8
  %27 = icmp eq i32 %26, 0
  br i1 %27, label %28, label %51

28:                                               ; preds = %21
  %29 = load ptr, ptr %2, align 8
  %30 = getelementptr inbounds %struct.H5F_t, ptr %29, i32 0, i32 2
  %31 = load ptr, ptr %30, align 8
  %32 = getelementptr inbounds %struct.H5F_shared_t, ptr %31, i32 0, i32 49
  %33 = load i8, ptr %32, align 8
  %34 = trunc i8 %33 to i1
  %35 = zext i1 %34 to i32
  %36 = icmp eq i32 %35, 0
  br i1 %36, label %37, label %51

37:                                               ; preds = %28
  %38 = load ptr, ptr %2, align 8
  %39 = getelementptr inbounds %struct.H5F_t, ptr %38, i32 0, i32 2
  %40 = load ptr, ptr %39, align 8
  %41 = getelementptr inbounds %struct.H5F_shared_t, ptr %40, i32 0, i32 48
  %42 = load i64, ptr %41, align 8
  %43 = icmp eq i64 %42, 1
  br i1 %43, label %44, label %51

44:                                               ; preds = %37
  %45 = load ptr, ptr %2, align 8
  %46 = getelementptr inbounds %struct.H5F_t, ptr %45, i32 0, i32 2
  %47 = load ptr, ptr %46, align 8
  %48 = getelementptr inbounds %struct.H5F_shared_t, ptr %47, i32 0, i32 64
  %49 = load i64, ptr %48, align 8
  %50 = icmp eq i64 %49, 4096
  br i1 %50, label %116, label %51

51:                                               ; preds = %44, %37, %28, %21
  %52 = load ptr, ptr %2, align 8
  %53 = getelementptr inbounds %struct.H5F_t, ptr %52, i32 0, i32 2
  %54 = load ptr, ptr %53, align 8
  %55 = getelementptr inbounds %struct.H5F_shared_t, ptr %54, i32 0, i32 1
  %56 = load ptr, ptr %55, align 8
  %57 = getelementptr inbounds %struct.H5F_super_t, ptr %56, i32 0, i32 8
  %58 = load i64, ptr %57, align 8
  %59 = icmp ne i64 %58, -1
  br i1 %59, label %60, label %80

60:                                               ; preds = %51
  %61 = load ptr, ptr %2, align 8
  %62 = call i32 @H5F__super_ext_remove_msg(ptr noundef %61, i32 noundef 23)
  %63 = icmp slt i32 %62, 0
  br i1 %63, label %64, label %79

64:                                               ; preds = %60
  br label %65

65:                                               ; preds = %64
  br label %66

66:                                               ; preds = %65
  br label %67

67:                                               ; preds = %66
  %68 = load i64, ptr @H5E_FILE_g, align 8
  %69 = load i64, ptr @H5E_CANTRELEASE_g, align 8
  %70 = call i32 (ptr, ptr, i32, i64, i64, ptr, ...) @H5E_printf_stack(ptr noundef @.str.2, ptr noundef @__func__.H5F__format_convert, i32 noundef 4028, i64 noundef %68, i64 noundef %69, ptr noundef @.str.175)
  br label %71

71:                                               ; preds = %67
  store i8 1, ptr %5, align 1
  %72 = load i8, ptr %5, align 1
  %73 = trunc i8 %72 to i1
  %74 = zext i1 %73 to i8
  store i8 %74, ptr %5, align 1
  br label %75

75:                                               ; preds = %71
  br label %76

76:                                               ; preds = %75
  store i32 -1, ptr %4, align 4
  br label %140

77:                                               ; No predecessors!
  br label %78

78:                                               ; preds = %77
  br label %79

79:                                               ; preds = %78, %60
  br label %80

80:                                               ; preds = %79, %51
  %81 = load ptr, ptr %2, align 8
  %82 = call i32 @H5MF_try_close(ptr noundef %81)
  %83 = icmp slt i32 %82, 0
  br i1 %83, label %84, label %99

84:                                               ; preds = %80
  br label %85

85:                                               ; preds = %84
  br label %86

86:                                               ; preds = %85
  br label %87

87:                                               ; preds = %86
  %88 = load i64, ptr @H5E_FILE_g, align 8
  %89 = load i64, ptr @H5E_CANTRELEASE_g, align 8
  %90 = call i32 (ptr, ptr, i32, i64, i64, ptr, ...) @H5E_printf_stack(ptr noundef @.str.2, ptr noundef @__func__.H5F__format_convert, i32 noundef 4032, i64 noundef %88, i64 noundef %89, ptr noundef @.str.176)
  br label %91

91:                                               ; preds = %87
  store i8 1, ptr %5, align 1
  %92 = load i8, ptr %5, align 1
  %93 = trunc i8 %92 to i1
  %94 = zext i1 %93 to i8
  store i8 %94, ptr %5, align 1
  br label %95

95:                                               ; preds = %91
  br label %96

96:                                               ; preds = %95
  store i32 -1, ptr %4, align 4
  br label %140

97:                                               ; No predecessors!
  br label %98

98:                                               ; preds = %97
  br label %99

99:                                               ; preds = %98, %80
  %100 = load ptr, ptr %2, align 8
  %101 = getelementptr inbounds %struct.H5F_t, ptr %100, i32 0, i32 2
  %102 = load ptr, ptr %101, align 8
  %103 = getelementptr inbounds %struct.H5F_shared_t, ptr %102, i32 0, i32 47
  store i32 0, ptr %103, align 8
  %104 = load ptr, ptr %2, align 8
  %105 = getelementptr inbounds %struct.H5F_t, ptr %104, i32 0, i32 2
  %106 = load ptr, ptr %105, align 8
  %107 = getelementptr inbounds %struct.H5F_shared_t, ptr %106, i32 0, i32 49
  store i8 0, ptr %107, align 8
  %108 = load ptr, ptr %2, align 8
  %109 = getelementptr inbounds %struct.H5F_t, ptr %108, i32 0, i32 2
  %110 = load ptr, ptr %109, align 8
  %111 = getelementptr inbounds %struct.H5F_shared_t, ptr %110, i32 0, i32 48
  store i64 1, ptr %111, align 8
  %112 = load ptr, ptr %2, align 8
  %113 = getelementptr inbounds %struct.H5F_t, ptr %112, i32 0, i32 2
  %114 = load ptr, ptr %113, align 8
  %115 = getelementptr inbounds %struct.H5F_shared_t, ptr %114, i32 0, i32 64
  store i64 4096, ptr %115, align 8
  store i8 1, ptr %3, align 1
  br label %116

116:                                              ; preds = %99, %44
  %117 = load i8, ptr %3, align 1
  %118 = trunc i8 %117 to i1
  br i1 %118, label %119, label %139

119:                                              ; preds = %116
  %120 = load ptr, ptr %2, align 8
  %121 = call i32 @H5F_super_dirty(ptr noundef %120)
  %122 = icmp slt i32 %121, 0
  br i1 %122, label %123, label %138

123:                                              ; preds = %119
  br label %124

124:                                              ; preds = %123
  br label %125

125:                                              ; preds = %124
  br label %126

126:                                              ; preds = %125
  %127 = load i64, ptr @H5E_FILE_g, align 8
  %128 = load i64, ptr @H5E_CANTMARKDIRTY_g, align 8
  %129 = call i32 (ptr, ptr, i32, i64, i64, ptr, ...) @H5E_printf_stack(ptr noundef @.str.2, ptr noundef @__func__.H5F__format_convert, i32 noundef 4048, i64 noundef %127, i64 noundef %128, ptr noundef @.str.110)
  br label %130

130:                                              ; preds = %126
  store i8 1, ptr %5, align 1
  %131 = load i8, ptr %5, align 1
  %132 = trunc i8 %131 to i1
  %133 = zext i1 %132 to i8
  store i8 %133, ptr %5, align 1
  br label %134

134:                                              ; preds = %130
  br label %135

135:                                              ; preds = %134
  store i32 -1, ptr %4, align 4
  br label %140

136:                                              ; No predecessors!
  br label %137

137:                                              ; preds = %136
  br label %138

138:                                              ; preds = %137, %119
  br label %139

139:                                              ; preds = %138, %116
  br label %140

140:                                              ; preds = %139, %135, %96, %76
  %141 = load i32, ptr %4, align 4
  ret i32 %141
}