; Function Attrs: nounwind uwtable
define range(i32 -1, 1) i32 @H5F__format_convert(ptr noundef %0) local_unnamed_addr #0 {
  %2 = getelementptr inbounds i8, ptr %0, i64 16
  %3 = load ptr, ptr %2, align 8
  %4 = getelementptr inbounds i8, ptr %3, i64 8
  %5 = load ptr, ptr %4, align 8
  %6 = getelementptr inbounds i8, ptr %5, i64 248
  %7 = load i32, ptr %6, align 8
  %8 = icmp ugt i32 %7, 2
  br i1 %8, label %9, label %10

9:                                                ; preds = %1
  store i32 2, ptr %6, align 8
  %.pre = load ptr, ptr %2, align 8
  br label %10

10:                                               ; preds = %9, %1
  %11 = phi ptr [ %.pre, %9 ], [ %3, %1 ]
  %12 = getelementptr inbounds i8, ptr %11, i64 1520
  %13 = load i32, ptr %12, align 8
  %14 = icmp eq i32 %13, 0
  br i1 %14, label %15, label %28

15:                                               ; preds = %10
  %16 = getelementptr inbounds i8, ptr %11, i64 1536
  %17 = load i8, ptr %16, align 8
  %18 = and i8 %17, 1
  %19 = icmp eq i8 %18, 0
  br i1 %19, label %20, label %28

20:                                               ; preds = %15
  %21 = getelementptr inbounds i8, ptr %11, i64 1528
  %22 = load i64, ptr %21, align 8
  %23 = icmp eq i64 %22, 1
  br i1 %23, label %24, label %28

24:                                               ; preds = %20
  %25 = getelementptr inbounds i8, ptr %11, i64 1984
  %26 = load i64, ptr %25, align 8
  %27 = icmp eq i64 %26, 4096
  br i1 %27, label %55, label %28

28:                                               ; preds = %24, %20, %15, %10
  %29 = getelementptr inbounds i8, ptr %11, i64 8
  %30 = load ptr, ptr %29, align 8
  %31 = getelementptr inbounds i8, ptr %30, i64 280
  %32 = load i64, ptr %31, align 8
  %.not = icmp eq i64 %32, -1
  br i1 %.not, label %40, label %33

33:                                               ; preds = %28
  %34 = tail call i32 @H5F__super_ext_remove_msg(ptr noundef nonnull %0, i32 noundef 23) #22
  %35 = icmp slt i32 %34, 0
  br i1 %35, label %36, label %40

36:                                               ; preds = %33
  %37 = load i64, ptr @H5E_FILE_g, align 8
  %38 = load i64, ptr @H5E_CANTRELEASE_g, align 8
  %39 = tail call i32 (ptr, ptr, i32, i64, i64, ptr, ...) @H5E_printf_stack(ptr noundef nonnull @.str.2, ptr noundef nonnull @__func__.H5F__format_convert, i32 noundef 4028, i64 noundef %37, i64 noundef %38, ptr noundef nonnull @.str.175) #22
  br label %63

40:                                               ; preds = %33, %28
  %41 = tail call i32 @H5MF_try_close(ptr noundef nonnull %0) #22
  %42 = icmp slt i32 %41, 0
  br i1 %42, label %43, label %.critedge

43:                                               ; preds = %40
  %44 = load i64, ptr @H5E_FILE_g, align 8
  %45 = load i64, ptr @H5E_CANTRELEASE_g, align 8
  %46 = tail call i32 (ptr, ptr, i32, i64, i64, ptr, ...) @H5E_printf_stack(ptr noundef nonnull @.str.2, ptr noundef nonnull @__func__.H5F__format_convert, i32 noundef 4032, i64 noundef %44, i64 noundef %45, ptr noundef nonnull @.str.176) #22
  br label %63

.critedge:                                        ; preds = %40
  %47 = load ptr, ptr %2, align 8
  %48 = getelementptr inbounds i8, ptr %47, i64 1520
  store i32 0, ptr %48, align 8
  %49 = load ptr, ptr %2, align 8
  %50 = getelementptr inbounds i8, ptr %49, i64 1536
  store i8 0, ptr %50, align 8
  %51 = load ptr, ptr %2, align 8
  %52 = getelementptr inbounds i8, ptr %51, i64 1528
  store i64 1, ptr %52, align 8
  %53 = load ptr, ptr %2, align 8
  %54 = getelementptr inbounds i8, ptr %53, i64 1984
  store i64 4096, ptr %54, align 8
  br label %56

55:                                               ; preds = %24
  br i1 %8, label %56, label %63

56:                                               ; preds = %.critedge, %55
  %57 = tail call i32 @H5F_super_dirty(ptr noundef nonnull %0) #22
  %58 = icmp slt i32 %57, 0
  br i1 %58, label %59, label %63

59:                                               ; preds = %56
  %60 = load i64, ptr @H5E_FILE_g, align 8
  %61 = load i64, ptr @H5E_CANTMARKDIRTY_g, align 8
  %62 = tail call i32 (ptr, ptr, i32, i64, i64, ptr, ...) @H5E_printf_stack(ptr noundef nonnull @.str.2, ptr noundef nonnull @__func__.H5F__format_convert, i32 noundef 4048, i64 noundef %60, i64 noundef %61, ptr noundef nonnull @.str.110) #22
  br label %63

63:                                               ; preds = %55, %56, %59, %43, %36
  %.0 = phi i32 [ -1, %59 ], [ 0, %56 ], [ 0, %55 ], [ -1, %36 ], [ -1, %43 ]
  ret i32 %.0
}